; Function Attrs: inlinehint mustprogress nounwind uwtable
define internal void @_ZN5arrow7compute8internal12_GLOBAL__N_114NullHashKernelINS2_16DictEncodeActionELb0EED2Ev(ptr noundef nonnull align 8 dereferenceable(352) initializes((0, 8), (112, 120)) %0) unnamed_addr #3 align 2 personality ptr @__gxx_personality_v0 {
  store ptr getelementptr inbounds nuw inrange(-16, 64) (i8, ptr @_ZTVN5arrow7compute8internal12_GLOBAL__N_114NullHashKernelINS2_16DictEncodeActionELb0EEE, i64 16), ptr %0, align 8, !tbaa !79
  %2 = getelementptr inbounds nuw i8, ptr %0, i64 88
  tail call fastcc void @_ZN5arrow7compute8internal12_GLOBAL__N_116DictEncodeActionD2Ev(ptr noundef nonnull align 8 dereferenceable(264) %2) #33
  %3 = getelementptr inbounds nuw i8, ptr %0, i64 72
  %4 = load ptr, ptr %3, align 8, !tbaa !81
  %.not.i.i = icmp eq ptr %4, null
  br i1 %.not.i.i, label %_ZNSt12__shared_ptrIN5arrow8DataTypeELN9__gnu_cxx12_Lock_policyE2EED2Ev.exit, label %5

5:                                                ; preds = %1
  %6 = getelementptr inbounds nuw i8, ptr %4, i64 8
  %7 = load atomic i64, ptr %6 acquire, align 8
  %8 = icmp eq i64 %7, 4294967297
  %9 = trunc i64 %7 to i32
  br i1 %8, label %10, label %18

10:                                               ; preds = %5
  store i32 0, ptr %6, align 8, !tbaa !76
  %11 = getelementptr inbounds nuw i8, ptr %4, i64 12
  store i32 0, ptr %11, align 4, !tbaa !78
  %12 = load ptr, ptr %4, align 8, !tbaa !79
  %13 = getelementptr inbounds nuw i8, ptr %12, i64 16
  %14 = load ptr, ptr %13, align 8
  tail call void %14(ptr noundef nonnull align 8 dereferenceable(16) %4) #33
  %15 = load ptr, ptr %4, align 8, !tbaa !79
  %16 = getelementptr inbounds nuw i8, ptr %15, i64 24
  %17 = load ptr, ptr %16, align 8
  tail call void %17(ptr noundef nonnull align 8 dereferenceable(16) %4) #33
  br label %_ZNSt12__shared_ptrIN5arrow8DataTypeELN9__gnu_cxx12_Lock_policyE2EED2Ev.exit

18:                                               ; preds = %5
  %19 = load i8, ptr @__libc_single_threaded, align 1, !tbaa !39
  %.not.i.i.i = icmp eq i8 %19, 0
  br i1 %.not.i.i.i, label %22, label %20

20:                                               ; preds = %18
  %21 = add nsw i32 %9, -1
  store i32 %21, ptr %6, align 4, !tbaa !115
  br label %_ZN9__gnu_cxx27__exchange_and_add_dispatchEPii.exit.i.i.i

22:                                               ; preds = %18
  %23 = atomicrmw volatile add ptr %6, i32 -1 acq_rel, align 4
  br label %_ZN9__gnu_cxx27__exchange_and_add_dispatchEPii.exit.i.i.i

_ZN9__gnu_cxx27__exchange_and_add_dispatchEPii.exit.i.i.i: ; preds = %22, %20
  %.0.i.i.i.i = phi i32 [ %9, %20 ], [ %23, %22 ]
  %24 = icmp eq i32 %.0.i.i.i.i, 1
  br i1 %24, label %25, label %_ZNSt12__shared_ptrIN5arrow8DataTypeELN9__gnu_cxx12_Lock_policyE2EED2Ev.exit, !prof !127

25:                                               ; preds = %_ZN9__gnu_cxx27__exchange_and_add_dispatchEPii.exit.i.i.i
  tail call void @_ZNSt16_Sp_counted_baseILN9__gnu_cxx12_Lock_policyE2EE24_M_release_last_use_coldEv(ptr noundef nonnull align 8 dereferenceable(16) %4) #33
  br label %_ZNSt12__shared_ptrIN5arrow8DataTypeELN9__gnu_cxx12_Lock_policyE2EED2Ev.exit

_ZNSt12__shared_ptrIN5arrow8DataTypeELN9__gnu_cxx12_Lock_policyE2EED2Ev.exit: ; preds = %1, %10, %_ZN9__gnu_cxx27__exchange_and_add_dispatchEPii.exit.i.i.i, %25
  ret void
}